# SymbolsHelper-Confirmed: 6.0.0 amd64
libKF6ItemViews.so.6 libkf6itemviews6 #MINVER#
* Build-Depends-Package: libkf6itemviews-dev
 _ZGVZN9QMetaType21registerConverterImplI5QListIN6QEvent4TypeEE9QIterableI13QMetaSequenceEEEbSt8functionIFbPKvPvEES_S_E10unregister@Base 6.0.0
 _ZGVZN9QMetaType21registerConverterImplI5QListIP11QTreeWidgetE9QIterableI13QMetaSequenceEEEbSt8functionIFbPKvPvEES_S_E10unregister@Base 6.0.0
 _ZGVZN9QMetaType21registerConverterImplI5QListIiE9QIterableI13QMetaSequenceEEEbSt8functionIFbPKvPvEES_S_E10unregister@Base 6.0.0
 _ZGVZN9QMetaType23registerMutableViewImplI5QListIN6QEvent4TypeEE9QIterableI13QMetaSequenceEEEbSt8functionIFbPvS9_EES_S_E10unregister@Base 6.0.0
 _ZGVZN9QMetaType23registerMutableViewImplI5QListIP11QTreeWidgetE9QIterableI13QMetaSequenceEEEbSt8functionIFbPvS9_EES_S_E10unregister@Base 6.0.0
 _ZGVZN9QMetaType23registerMutableViewImplI5QListIiE9QIterableI13QMetaSequenceEEEbSt8functionIFbPvS7_EES_S_E10unregister@Base 6.0.0
 _ZN13QMetaSequence12MetaSequenceI5QListIN6QEvent4TypeEEE5valueE@Base 6.0.0
 _ZN13QMetaSequence12MetaSequenceI5QListIP11QTreeWidgetEE5valueE@Base 6.0.0
 _ZN13QMetaSequence12MetaSequenceI5QListIiEE5valueE@Base 6.0.0
 _ZN15KCategoryDrawer10mouseMovedERK11QModelIndexRK5QRectP11QMouseEvent@Base 6.0.0
 _ZN15KCategoryDrawer11qt_metacallEN11QMetaObject4CallEiPPv@Base 6.0.0
 _ZN15KCategoryDrawer11qt_metacastEPKc@Base 6.0.0
 _ZN15KCategoryDrawer15actionRequestedEiRK11QModelIndex@Base 6.0.0
 _ZN15KCategoryDrawer16staticMetaObjectE@Base 6.0.0
 _ZN15KCategoryDrawer18mouseButtonPressedERK11QModelIndexRK5QRectP11QMouseEvent@Base 6.0.0
 _ZN15KCategoryDrawer19mouseButtonReleasedERK11QModelIndexRK5QRectP11QMouseEvent@Base 6.0.0
 _ZN15KCategoryDrawer23collapseOrExpandClickedERK11QModelIndex@Base 6.0.0
 _ZN15KCategoryDrawer24mouseButtonDoubleClickedERK11QModelIndexRK5QRectP11QMouseEvent@Base 6.0.0
 _ZN15KCategoryDrawer9mouseLeftERK11QModelIndexRK5QRect@Base 6.0.0
 _ZN15KCategoryDrawerC1EP16KCategorizedView@Base 6.0.0
 _ZN15KCategoryDrawerC2EP16KCategorizedView@Base 6.0.0
 _ZN15KCategoryDrawerD0Ev@Base 6.0.0
 _ZN15KCategoryDrawerD1Ev@Base 6.0.0
 _ZN15KCategoryDrawerD2Ev@Base 6.0.0
 _ZN16KCategorizedView10leaveEventEP6QEvent@Base 6.0.0
 _ZN16KCategorizedView10moveCursorEN17QAbstractItemView12CursorActionE6QFlagsIN2Qt16KeyboardModifierEE@Base 6.0.0
 _ZN16KCategorizedView10paintEventEP11QPaintEvent@Base 6.0.0
 _ZN16KCategorizedView11dataChangedERK11QModelIndexS2_RK5QListIiE@Base 6.0.0
 _ZN16KCategorizedView11qt_metacallEN11QMetaObject4CallEiPPv@Base 6.0.0
 _ZN16KCategorizedView11qt_metacastEPKc@Base 6.0.0
 _ZN16KCategorizedView11resizeEventEP12QResizeEvent@Base 6.0.0
 _ZN16KCategorizedView11setGridSizeERK5QSize@Base 6.0.0
 _ZN16KCategorizedView12rowsInsertedERK11QModelIndexii@Base 6.0.0
 _ZN16KCategorizedView12setSelectionERK5QRect6QFlagsIN19QItemSelectionModel13SelectionFlagEE@Base 6.0.0
 _ZN16KCategorizedView13dragMoveEventEP14QDragMoveEvent@Base 6.0.0
 _ZN16KCategorizedView14currentChangedERK11QModelIndexS2_@Base 6.0.0
 _ZN16KCategorizedView14dragEnterEventEP15QDragEnterEvent@Base 6.0.0
 _ZN16KCategorizedView14dragLeaveEventEP15QDragLeaveEvent@Base 6.0.0
 _ZN16KCategorizedView14mouseMoveEventEP11QMouseEvent@Base 6.0.0
 _ZN16KCategorizedView14setGridSizeOwnERK5QSize@Base 6.0.0
 _ZN16KCategorizedView15mousePressEventEP11QMouseEvent@Base 6.0.0
 _ZN16KCategorizedView16staticMetaObjectE@Base 6.0.0
 _ZN16KCategorizedView16updateGeometriesEv@Base 6.0.0
 _ZN16KCategorizedView17mouseReleaseEventEP11QMouseEvent@Base 6.0.0
 _ZN16KCategorizedView17setCategoryDrawerEP15KCategoryDrawer@Base 6.0.0
 _ZN16KCategorizedView17slotLayoutChangedEv@Base 6.0.0
 _ZN16KCategorizedView18setCategorySpacingEi@Base 6.0.0
 _ZN16KCategorizedView20rowsAboutToBeRemovedERK11QModelIndexii@Base 6.0.0
 _ZN16KCategorizedView20setCollapsibleBlocksEb@Base 6.0.0
 _ZN16KCategorizedView22categorySpacingChangedEi@Base 6.0.0
 _ZN16KCategorizedView24collapsibleBlocksChangedEb@Base 6.0.0
 _ZN16KCategorizedView25setAlternatingBlockColorsEb@Base 6.0.0
 _ZN16KCategorizedView29alternatingBlockColorsChangedEb@Base 6.0.0
 _ZN16KCategorizedView5blockERK11QModelIndex@Base 6.0.0
 _ZN16KCategorizedView5blockERK7QString@Base 6.0.0
 _ZN16KCategorizedView5resetEv@Base 6.0.0
 _ZN16KCategorizedView8setModelEP18QAbstractItemModel@Base 6.0.0
 _ZN16KCategorizedView9dropEventEP10QDropEvent@Base 6.0.0
 _ZN16KCategorizedView9startDragE6QFlagsIN2Qt10DropActionEE@Base 6.0.0
 _ZN16KCategorizedViewC1EP7QWidget@Base 6.0.0
 _ZN16KCategorizedViewC2EP7QWidget@Base 6.0.0
 _ZN16KCategorizedViewD0Ev@Base 6.0.0
 _ZN16KCategorizedViewD1Ev@Base 6.0.0
 _ZN16KCategorizedViewD2Ev@Base 6.0.0
 _ZN19KWidgetItemDelegate10resetModelEv@Base 6.0.0
 _ZN19KWidgetItemDelegate11qt_metacallEN11QMetaObject4CallEiPPv@Base 6.0.0
 _ZN19KWidgetItemDelegate11qt_metacastEPKc@Base 6.0.0
 _ZN19KWidgetItemDelegate16staticMetaObjectE@Base 6.0.0
 _ZN19KWidgetItemDelegateC1EP17QAbstractItemViewP7QObject@Base 6.0.0
 _ZN19KWidgetItemDelegateC2EP17QAbstractItemViewP7QObject@Base 6.0.0
 _ZN19KWidgetItemDelegateD0Ev@Base 6.0.0
 _ZN19KWidgetItemDelegateD1Ev@Base 6.0.0
 _ZN19KWidgetItemDelegateD2Ev@Base 6.0.0
 _ZN21KListWidgetSearchLine11qt_metacallEN11QMetaObject4CallEiPPv@Base 6.0.0
 _ZN21KListWidgetSearchLine11qt_metacastEPKc@Base 6.0.0
 _ZN21KListWidgetSearchLine12updateSearchERK7QString@Base 6.0.0
 _ZN21KListWidgetSearchLine13setListWidgetEP11QListWidget@Base 6.0.0
 _ZN21KListWidgetSearchLine16staticMetaObjectE@Base 6.0.0
 _ZN21KListWidgetSearchLine18setCaseSensitivityEN2Qt15CaseSensitivityE@Base 6.0.0
 _ZN21KListWidgetSearchLine5clearEv@Base 6.0.0
 _ZN21KListWidgetSearchLine5eventEP6QEvent@Base 6.0.0
 _ZN21KListWidgetSearchLineC1EP7QWidgetP11QListWidget@Base 6.0.0
 _ZN21KListWidgetSearchLineC2EP7QWidgetP11QListWidget@Base 6.0.0
 _ZN21KListWidgetSearchLineD0Ev@Base 6.0.0
 _ZN21KListWidgetSearchLineD1Ev@Base 6.0.0
 _ZN21KListWidgetSearchLineD2Ev@Base 6.0.0
 _ZN21KTreeWidgetSearchLine11qt_metacallEN11QMetaObject4CallEiPPv@Base 6.0.0
 _ZN21KTreeWidgetSearchLine11qt_metacastEPKc@Base 6.0.0
 _ZN21KTreeWidgetSearchLine12updateSearchEP11QTreeWidget@Base 6.0.0
 _ZN21KTreeWidgetSearchLine12updateSearchERK7QString@Base 6.0.0
 _ZN21KTreeWidgetSearchLine13addTreeWidgetEP11QTreeWidget@Base 6.0.0
 _ZN21KTreeWidgetSearchLine13hiddenChangedEP15QTreeWidgetItemb@Base 6.0.0
 _ZN21KTreeWidgetSearchLine13searchUpdatedERK7QString@Base 6.0.0
 _ZN21KTreeWidgetSearchLine13setTreeWidgetEP11QTreeWidget@Base 6.0.0
 _ZN21KTreeWidgetSearchLine14setTreeWidgetsERK5QListIP11QTreeWidgetE@Base 6.0.0
 _ZN21KTreeWidgetSearchLine16contextMenuEventEP17QContextMenuEvent@Base 6.0.0
 _ZN21KTreeWidgetSearchLine16removeTreeWidgetEP11QTreeWidget@Base 6.0.0
 _ZN21KTreeWidgetSearchLine16setSearchColumnsERK5QListIiE@Base 6.0.0
 _ZN21KTreeWidgetSearchLine16staticMetaObjectE@Base 6.0.0
 _ZN21KTreeWidgetSearchLine17connectTreeWidgetEP11QTreeWidget@Base 6.0.0
 _ZN21KTreeWidgetSearchLine18setCaseSensitivityEN2Qt15CaseSensitivityE@Base 6.0.0
 _ZN21KTreeWidgetSearchLine20disconnectTreeWidgetEP11QTreeWidget@Base 6.0.0
 _ZN21KTreeWidgetSearchLine21canChooseColumnsCheckEv@Base 6.0.0
 _ZN21KTreeWidgetSearchLine21setKeepParentsVisibleEb@Base 6.0.0
 _ZN21KTreeWidgetSearchLine22caseSensitivityChangedEN2Qt15CaseSensitivityE@Base 6.0.0
 _ZN21KTreeWidgetSearchLine25keepParentsVisibleChangedEb@Base 6.0.0
 _ZN21KTreeWidgetSearchLine5eventEP6QEvent@Base 6.0.0
 _ZN21KTreeWidgetSearchLineC1EP7QWidgetP11QTreeWidget@Base 6.0.0
 _ZN21KTreeWidgetSearchLineC1EP7QWidgetRK5QListIP11QTreeWidgetE@Base 6.0.0
 _ZN21KTreeWidgetSearchLineC2EP7QWidgetP11QTreeWidget@Base 6.0.0
 _ZN21KTreeWidgetSearchLineC2EP7QWidgetRK5QListIP11QTreeWidgetE@Base 6.0.0
 _ZN21KTreeWidgetSearchLineD0Ev@Base 6.0.0
 _ZN21KTreeWidgetSearchLineD1Ev@Base 6.0.0
 _ZN21KTreeWidgetSearchLineD2Ev@Base 6.0.0
 _ZN23KExtendableItemDelegate10extendItemEP7QWidgetRK11QModelIndex@Base 6.0.0
 _ZN23KExtendableItemDelegate11contractAllEv@Base 6.0.0
 _ZN23KExtendableItemDelegate11qt_metacallEN11QMetaObject4CallEiPPv@Base 6.0.0
 _ZN23KExtendableItemDelegate11qt_metacastEPKc@Base 6.0.0
 _ZN23KExtendableItemDelegate12contractItemERK11QModelIndex@Base 6.0.0
 _ZN23KExtendableItemDelegate12extendPixmapEv@Base 6.0.0
 _ZN23KExtendableItemDelegate14contractPixmapEv@Base 6.0.0
 _ZN23KExtendableItemDelegate15extenderCreatedEP7QWidgetRK11QModelIndex@Base 6.0.0
 _ZN23KExtendableItemDelegate15setExtendPixmapERK7QPixmap@Base 6.0.0
 _ZN23KExtendableItemDelegate16staticMetaObjectE@Base 6.0.0
 _ZN23KExtendableItemDelegate17extenderDestroyedEP7QWidgetRK11QModelIndex@Base 6.0.0
 _ZN23KExtendableItemDelegate17setContractPixmapERK7QPixmap@Base 6.0.0
 _ZN23KExtendableItemDelegateC1EP17QAbstractItemView@Base 6.0.0
 _ZN23KExtendableItemDelegateC2EP17QAbstractItemView@Base 6.0.0
 _ZN23KExtendableItemDelegateD0Ev@Base 6.0.0
 _ZN23KExtendableItemDelegateD1Ev@Base 6.0.0
 _ZN23KExtendableItemDelegateD2Ev@Base 6.0.0
 _ZN27KTreeWidgetSearchLineWidget11qt_metacallEN11QMetaObject4CallEiPPv@Base 6.0.0
 _ZN27KTreeWidgetSearchLineWidget11qt_metacastEPKc@Base 6.0.0
 _ZN27KTreeWidgetSearchLineWidget13createWidgetsEv@Base 6.0.0
 _ZN27KTreeWidgetSearchLineWidget16staticMetaObjectE@Base 6.0.0
 _ZN27KTreeWidgetSearchLineWidgetC1EP7QWidgetP11QTreeWidget@Base 6.0.0
 _ZN27KTreeWidgetSearchLineWidgetC2EP7QWidgetP11QTreeWidget@Base 6.0.0
 _ZN27KTreeWidgetSearchLineWidgetD0Ev@Base 6.0.0
 _ZN27KTreeWidgetSearchLineWidgetD1Ev@Base 6.0.0
 _ZN27KTreeWidgetSearchLineWidgetD2Ev@Base 6.0.0
 _ZN32KCategorizedSortFilterProxyModel19setCategorizedModelEb@Base 6.0.0
 _ZN32KCategorizedSortFilterProxyModel36setSortCategoriesByNaturalComparisonEb@Base 6.0.0
 _ZN32KCategorizedSortFilterProxyModel4sortEiN2Qt9SortOrderE@Base 6.0.0
 _ZN32KCategorizedSortFilterProxyModelC1EP7QObject@Base 6.0.0
 _ZN32KCategorizedSortFilterProxyModelC2EP7QObject@Base 6.0.0
 _ZN32KCategorizedSortFilterProxyModelD0Ev@Base 6.0.0
 _ZN32KCategorizedSortFilterProxyModelD1Ev@Base 6.0.0
 _ZN32KCategorizedSortFilterProxyModelD2Ev@Base 6.0.0
 _ZNK15KCategoryDrawer10leftMarginEv@Base 6.0.0
 _ZNK15KCategoryDrawer10metaObjectEv@Base 6.0.0
 _ZNK15KCategoryDrawer11rightMarginEv@Base 6.0.0
 _ZNK15KCategoryDrawer12drawCategoryERK11QModelIndexiRK12QStyleOptionP8QPainter@Base 6.0.0
 _ZNK15KCategoryDrawer14categoryHeightERK11QModelIndexRK12QStyleOption@Base 6.0.0
 _ZNK15KCategoryDrawer4viewEv@Base 6.0.0
 _ZNK16KCategorizedView10metaObjectEv@Base 6.0.0
 _ZNK16KCategorizedView10visualRectERK11QModelIndex@Base 6.0.0
 _ZNK16KCategorizedView14categoryDrawerEv@Base 6.0.0
 _ZNK16KCategorizedView15categorySpacingEv@Base 6.0.0
 _ZNK16KCategorizedView17collapsibleBlocksEv@Base 6.0.0
 _ZNK16KCategorizedView22alternatingBlockColorsEv@Base 6.0.0
 _ZNK16KCategorizedView7indexAtERK6QPoint@Base 6.0.0
 _ZNK19KWidgetItemDelegate10metaObjectEv@Base 6.0.0
 _ZNK19KWidgetItemDelegate12focusedIndexEv@Base 6.0.0
 _ZNK19KWidgetItemDelegate17blockedEventTypesEP7QWidget@Base 6.0.0
 _ZNK19KWidgetItemDelegate20setBlockedEventTypesEP7QWidgetRK5QListIN6QEvent4TypeEE@Base 6.0.0
 _ZNK19KWidgetItemDelegate8itemViewEv@Base 6.0.0
 _ZNK21KListWidgetSearchLine10listWidgetEv@Base 6.0.0
 _ZNK21KListWidgetSearchLine10metaObjectEv@Base 6.0.0
 _ZNK21KListWidgetSearchLine11itemMatchesEPK15QListWidgetItemRK7QString@Base 6.0.0
 _ZNK21KListWidgetSearchLine13caseSensitiveEv@Base 6.0.0
 _ZNK21KTreeWidgetSearchLine10metaObjectEv@Base 6.0.0
 _ZNK21KTreeWidgetSearchLine10treeWidgetEv@Base 6.0.0
 _ZNK21KTreeWidgetSearchLine11itemMatchesEPK15QTreeWidgetItemRK7QString@Base 6.0.0
 _ZNK21KTreeWidgetSearchLine11treeWidgetsEv@Base 6.0.0
 _ZNK21KTreeWidgetSearchLine13searchColumnsEv@Base 6.0.0
 _ZNK21KTreeWidgetSearchLine15caseSensitivityEv@Base 6.0.0
 _ZNK21KTreeWidgetSearchLine18keepParentsVisibleEv@Base 6.0.0
 _ZNK23KExtendableItemDelegate10isExtendedERK11QModelIndex@Base 6.0.0
 _ZNK23KExtendableItemDelegate10metaObjectEv@Base 6.0.0
 _ZNK23KExtendableItemDelegate12extenderRectEP7QWidgetRK20QStyleOptionViewItemRK11QModelIndex@Base 6.0.0
 _ZNK23KExtendableItemDelegate22updateExtenderGeometryEP7QWidgetRK20QStyleOptionViewItemRK11QModelIndex@Base 6.0.0
 _ZNK23KExtendableItemDelegate5paintEP8QPainterRK20QStyleOptionViewItemRK11QModelIndex@Base 6.0.0
 _ZNK23KExtendableItemDelegate8sizeHintERK20QStyleOptionViewItemRK11QModelIndex@Base 6.0.0
 _ZNK27KTreeWidgetSearchLineWidget10metaObjectEv@Base 6.0.0
 _ZNK27KTreeWidgetSearchLineWidget10searchLineEv@Base 6.0.0
 _ZNK27KTreeWidgetSearchLineWidget16createSearchLineEP11QTreeWidget@Base 6.0.0
 _ZNK32KCategorizedSortFilterProxyModel10sortColumnEv@Base 6.0.0
 _ZNK32KCategorizedSortFilterProxyModel15subSortLessThanERK11QModelIndexS2_@Base 6.0.0
 _ZNK32KCategorizedSortFilterProxyModel17compareCategoriesERK11QModelIndexS2_@Base 6.0.0
 _ZNK32KCategorizedSortFilterProxyModel18isCategorizedModelEv@Base 6.0.0
 _ZNK32KCategorizedSortFilterProxyModel33sortCategoriesByNaturalComparisonEv@Base 6.0.0
 _ZNK32KCategorizedSortFilterProxyModel8lessThanERK11QModelIndexS2_@Base 6.0.0
 _ZNK32KCategorizedSortFilterProxyModel9sortOrderEv@Base 6.0.0
 _ZTI15KCategoryDrawer@Base 6.0.0
 _ZTI16KCategorizedView@Base 6.0.0
 _ZTI19KWidgetItemDelegate@Base 6.0.0
 _ZTI21KListWidgetSearchLine@Base 6.0.0
 _ZTI21KTreeWidgetSearchLine@Base 6.0.0
 _ZTI23KExtendableItemDelegate@Base 6.0.0
 _ZTI27KTreeWidgetSearchLineWidget@Base 6.0.0
 _ZTI32KCategorizedSortFilterProxyModel@Base 6.0.0
 _ZTIZN9QMetaType17registerConverterI5QListIN6QEvent4TypeEE9QIterableI13QMetaSequenceEN9QtPrivate33QSequentialIterableConvertFunctorIS4_EEEEbT1_EUlPKvPvE_@Base 6.0.0
 _ZTIZN9QMetaType17registerConverterI5QListIP11QTreeWidgetE9QIterableI13QMetaSequenceEN9QtPrivate33QSequentialIterableConvertFunctorIS4_EEEEbT1_EUlPKvPvE_@Base 6.0.0
 _ZTIZN9QMetaType17registerConverterI5QListIiE9QIterableI13QMetaSequenceEN9QtPrivate33QSequentialIterableConvertFunctorIS2_EEEEbT1_EUlPKvPvE_@Base 6.0.0
 _ZTIZN9QMetaType19registerMutableViewI5QListIN6QEvent4TypeEE9QIterableI13QMetaSequenceEN9QtPrivate37QSequentialIterableMutableViewFunctorIS4_EEEEbT1_EUlPvSC_E_@Base 6.0.0
 _ZTIZN9QMetaType19registerMutableViewI5QListIP11QTreeWidgetE9QIterableI13QMetaSequenceEN9QtPrivate37QSequentialIterableMutableViewFunctorIS4_EEEEbT1_EUlPvSC_E_@Base 6.0.0
 _ZTIZN9QMetaType19registerMutableViewI5QListIiE9QIterableI13QMetaSequenceEN9QtPrivate37QSequentialIterableMutableViewFunctorIS2_EEEEbT1_EUlPvSA_E_@Base 6.0.0
 _ZTS15KCategoryDrawer@Base 6.0.0
 _ZTS16KCategorizedView@Base 6.0.0
 _ZTS19KWidgetItemDelegate@Base 6.0.0
 _ZTS21KListWidgetSearchLine@Base 6.0.0
 _ZTS21KTreeWidgetSearchLine@Base 6.0.0
 _ZTS23KExtendableItemDelegate@Base 6.0.0
 _ZTS27KTreeWidgetSearchLineWidget@Base 6.0.0
 _ZTS32KCategorizedSortFilterProxyModel@Base 6.0.0
 _ZTSZN9QMetaType17registerConverterI5QListIN6QEvent4TypeEE9QIterableI13QMetaSequenceEN9QtPrivate33QSequentialIterableConvertFunctorIS4_EEEEbT1_EUlPKvPvE_@Base 6.0.0
 _ZTSZN9QMetaType17registerConverterI5QListIP11QTreeWidgetE9QIterableI13QMetaSequenceEN9QtPrivate33QSequentialIterableConvertFunctorIS4_EEEEbT1_EUlPKvPvE_@Base 6.0.0
 _ZTSZN9QMetaType17registerConverterI5QListIiE9QIterableI13QMetaSequenceEN9QtPrivate33QSequentialIterableConvertFunctorIS2_EEEEbT1_EUlPKvPvE_@Base 6.0.0
 _ZTSZN9QMetaType19registerMutableViewI5QListIN6QEvent4TypeEE9QIterableI13QMetaSequenceEN9QtPrivate37QSequentialIterableMutableViewFunctorIS4_EEEEbT1_EUlPvSC_E_@Base 6.0.0
 _ZTSZN9QMetaType19registerMutableViewI5QListIP11QTreeWidgetE9QIterableI13QMetaSequenceEN9QtPrivate37QSequentialIterableMutableViewFunctorIS4_EEEEbT1_EUlPvSC_E_@Base 6.0.0
 _ZTSZN9QMetaType19registerMutableViewI5QListIiE9QIterableI13QMetaSequenceEN9QtPrivate37QSequentialIterableMutableViewFunctorIS2_EEEEbT1_EUlPvSA_E_@Base 6.0.0
 _ZTV15KCategoryDrawer@Base 6.0.0
 _ZTV16KCategorizedView@Base 6.0.0
 _ZTV19KWidgetItemDelegate@Base 6.0.0
 _ZTV21KListWidgetSearchLine@Base 6.0.0
 _ZTV21KTreeWidgetSearchLine@Base 6.0.0
 _ZTV23KExtendableItemDelegate@Base 6.0.0
 _ZTV27KTreeWidgetSearchLineWidget@Base 6.0.0
 _ZTV32KCategorizedSortFilterProxyModel@Base 6.0.0
 (optional=templinst)_ZZN9QMetaType21registerConverterImplI5QListIN6QEvent4TypeEE9QIterableI13QMetaSequenceEEEbSt8functionIFbPKvPvEES_S_E10unregister@Base 6.0.0
 (optional=templinst)_ZZN9QMetaType21registerConverterImplI5QListIP11QTreeWidgetE9QIterableI13QMetaSequenceEEEbSt8functionIFbPKvPvEES_S_E10unregister@Base 6.0.0
 (optional=templinst)_ZZN9QMetaType21registerConverterImplI5QListIiE9QIterableI13QMetaSequenceEEEbSt8functionIFbPKvPvEES_S_E10unregister@Base 6.0.0
 (optional=templinst)_ZZN9QMetaType23registerMutableViewImplI5QListIN6QEvent4TypeEE9QIterableI13QMetaSequenceEEEbSt8functionIFbPvS9_EES_S_E10unregister@Base 6.0.0
 (optional=templinst)_ZZN9QMetaType23registerMutableViewImplI5QListIP11QTreeWidgetE9QIterableI13QMetaSequenceEEEbSt8functionIFbPvS9_EES_S_E10unregister@Base 6.0.0
 (optional=templinst)_ZZN9QMetaType23registerMutableViewImplI5QListIiE9QIterableI13QMetaSequenceEEEbSt8functionIFbPvS7_EES_S_E10unregister@Base 6.0.0
 (c++)"non-virtual thunk to KCategorizedView::~KCategorizedView()@Base" 6.0.0
 (c++)"non-virtual thunk to KListWidgetSearchLine::~KListWidgetSearchLine()@Base" 6.0.0
 (c++)"non-virtual thunk to KTreeWidgetSearchLine::~KTreeWidgetSearchLine()@Base" 6.0.0
 (c++)"non-virtual thunk to KTreeWidgetSearchLineWidget::~KTreeWidgetSearchLineWidget()@Base" 6.0.0
